target datalayout = "e-m:e-p270:32:32-p271:32:32-p272:64:64-i64:64-i128:128-f80:128-n8:16:32:64-S128"
target triple = "x86_64-pc-linux-gnu"

%struct.jpeg_compress_struct = type { ptr, ptr, ptr, ptr, i32, i32, ptr, i32, i32, i32, i32, double, i32, i32, i32, ptr, [4 x ptr], [4 x ptr], [4 x ptr], [16 x i8], [16 x i8], [16 x i8], i32, ptr, i32, i32, i32, i32, i32, i32, i32, i32, i32, i8, i8, i8, i16, i16, i32, i32, i32, i32, i32, i32, i32, [4 x ptr], i32, i32, i32, [10 x i32], i32, i32, i32, i32, ptr, ptr, ptr, ptr, ptr, ptr, ptr, ptr, ptr, ptr, i32 }
%struct.jpeg_error_mgr = type { ptr, ptr, ptr, ptr, ptr, i32, %union.anon, i32, i64, ptr, i32, ptr, i32, i32 }
%union.anon = type { [8 x i32], [48 x i8] }
%struct.jpeg_destination_mgr = type { ptr, i64, ptr, ptr, ptr }
%struct.JHUFF_TBL = type { [17 x i8], [256 x i8], i32 }

; Function Attrs: nounwind uwtable
define internal void @emit_byte(ptr noundef %0, i32 noundef %1) #0 {
  %3 = alloca ptr, align 8
  %4 = alloca i32, align 4
  %5 = alloca ptr, align 8
  store ptr %0, ptr %3, align 8, !tbaa !3
  store i32 %1, ptr %4, align 4, !tbaa !43
  call void @llvm.lifetime.start.p0(i64 8, ptr %5) #2
  %6 = load ptr, ptr %3, align 8, !tbaa !3
  %7 = getelementptr inbounds nuw %struct.jpeg_compress_struct, ptr %6, i32 0, i32 6
  %8 = load ptr, ptr %7, align 8, !tbaa !79
  store ptr %8, ptr %5, align 8, !tbaa !80
  %9 = load i32, ptr %4, align 4, !tbaa !43
  %10 = trunc i32 %9 to i8
  %11 = load ptr, ptr %5, align 8, !tbaa !80
  %12 = getelementptr inbounds nuw %struct.jpeg_destination_mgr, ptr %11, i32 0, i32 0
  %13 = load ptr, ptr %12, align 8, !tbaa !81
  %14 = getelementptr inbounds nuw i8, ptr %13, i32 1
  store ptr %14, ptr %12, align 8, !tbaa !81
  store i8 %10, ptr %13, align 1, !tbaa !84
  %15 = load ptr, ptr %5, align 8, !tbaa !80
  %16 = getelementptr inbounds nuw %struct.jpeg_destination_mgr, ptr %15, i32 0, i32 1
  %17 = load i64, ptr %16, align 8, !tbaa !85
  %18 = add i64 %17, -1
  store i64 %18, ptr %16, align 8, !tbaa !85
  %19 = icmp eq i64 %18, 0
  br i1 %19, label %20, label %39

20:                                               ; preds = %2
  %21 = load ptr, ptr %5, align 8, !tbaa !80
  %22 = getelementptr inbounds nuw %struct.jpeg_destination_mgr, ptr %21, i32 0, i32 3
  %23 = load ptr, ptr %22, align 8, !tbaa !86
  %24 = load ptr, ptr %3, align 8, !tbaa !3
  %25 = call i32 %23(ptr noundef %24)
  %26 = icmp ne i32 %25, 0
  br i1 %26, label %38, label %27

27:                                               ; preds = %20
  %28 = load ptr, ptr %3, align 8, !tbaa !3
  %29 = getelementptr inbounds nuw %struct.jpeg_compress_struct, ptr %28, i32 0, i32 0
  %30 = load ptr, ptr %29, align 8, !tbaa !59
  %31 = getelementptr inbounds nuw %struct.jpeg_error_mgr, ptr %30, i32 0, i32 5
  store i32 24, ptr %31, align 8, !tbaa !60
  %32 = load ptr, ptr %3, align 8, !tbaa !3
  %33 = getelementptr inbounds nuw %struct.jpeg_compress_struct, ptr %32, i32 0, i32 0
  %34 = load ptr, ptr %33, align 8, !tbaa !59
  %35 = getelementptr inbounds nuw %struct.jpeg_error_mgr, ptr %34, i32 0, i32 0
  %36 = load ptr, ptr %35, align 8, !tbaa !72
  %37 = load ptr, ptr %3, align 8, !tbaa !3
  call void %36(ptr noundef %37)
  br label %38

38:                                               ; preds = %27, %20
  br label %39

39:                                               ; preds = %38, %2
  call void @llvm.lifetime.end.p0(i64 8, ptr %5) #2
  ret void
}

; Function Attrs: nounwind uwtable
define internal void @emit_2bytes(ptr noundef %0, i32 noundef %1) #0 {
  %3 = alloca ptr, align 8
  %4 = alloca i32, align 4
  store ptr %0, ptr %3, align 8, !tbaa !3
  store i32 %1, ptr %4, align 4, !tbaa !43
  %5 = load ptr, ptr %3, align 8, !tbaa !3
  %6 = load i32, ptr %4, align 4, !tbaa !43
  %7 = ashr i32 %6, 8
  %8 = and i32 %7, 255
  call void @emit_byte(ptr noundef %5, i32 noundef %8)
  %9 = load ptr, ptr %3, align 8, !tbaa !3
  %10 = load i32, ptr %4, align 4, !tbaa !43
  %11 = and i32 %10, 255
  call void @emit_byte(ptr noundef %9, i32 noundef %11)
  ret void
}

; Function Attrs: nounwind uwtable
define internal void @emit_marker(ptr noundef %0, i32 noundef %1) #0 {
  %3 = alloca ptr, align 8
  %4 = alloca i32, align 4
  store ptr %0, ptr %3, align 8, !tbaa !3
  store i32 %1, ptr %4, align 4, !tbaa !43
  %5 = load ptr, ptr %3, align 8, !tbaa !3
  call void @emit_byte(ptr noundef %5, i32 noundef 255)
  %6 = load ptr, ptr %3, align 8, !tbaa !3
  %7 = load i32, ptr %4, align 4, !tbaa !43
  call void @emit_byte(ptr noundef %6, i32 noundef %7)
  ret void
}

; Function Attrs: nounwind uwtable
define internal void @emit_dht(ptr noundef %0, i32 noundef %1, i32 noundef %2) #0 {
  %4 = alloca ptr, align 8
  %5 = alloca i32, align 4
  %6 = alloca i32, align 4
  %7 = alloca ptr, align 8
  %8 = alloca i32, align 4
  %9 = alloca i32, align 4
  store ptr %0, ptr %4, align 8, !tbaa !3
  store i32 %1, ptr %5, align 4, !tbaa !43
  store i32 %2, ptr %6, align 4, !tbaa !43
  call void @llvm.lifetime.start.p0(i64 8, ptr %7) #2
  call void @llvm.lifetime.start.p0(i64 4, ptr %8) #2
  call void @llvm.lifetime.start.p0(i64 4, ptr %9) #2
  %10 = load i32, ptr %6, align 4, !tbaa !43
  %11 = icmp ne i32 %10, 0
  br i1 %11, label %12, label %21

12:                                               ; preds = %3
  %13 = load ptr, ptr %4, align 8, !tbaa !3
  %14 = getelementptr inbounds nuw %struct.jpeg_compress_struct, ptr %13, i32 0, i32 18
  %15 = load i32, ptr %5, align 4, !tbaa !43
  %16 = sext i32 %15 to i64
  %17 = getelementptr inbounds [4 x ptr], ptr %14, i64 0, i64 %16
  %18 = load ptr, ptr %17, align 8, !tbaa !29
  store ptr %18, ptr %7, align 8, !tbaa !29
  %19 = load i32, ptr %5, align 4, !tbaa !43
  %20 = add nsw i32 %19, 16
  store i32 %20, ptr %5, align 4, !tbaa !43
  br label %28

21:                                               ; preds = %3
  %22 = load ptr, ptr %4, align 8, !tbaa !3
  %23 = getelementptr inbounds nuw %struct.jpeg_compress_struct, ptr %22, i32 0, i32 17
  %24 = load i32, ptr %5, align 4, !tbaa !43
  %25 = sext i32 %24 to i64
  %26 = getelementptr inbounds [4 x ptr], ptr %23, i64 0, i64 %25
  %27 = load ptr, ptr %26, align 8, !tbaa !29
  store ptr %27, ptr %7, align 8, !tbaa !29
  br label %28

28:                                               ; preds = %21, %12
  %29 = load ptr, ptr %7, align 8, !tbaa !29
  %30 = icmp eq ptr %29, null
  br i1 %30, label %31, label %48

31:                                               ; preds = %28
  %32 = load ptr, ptr %4, align 8, !tbaa !3
  %33 = getelementptr inbounds nuw %struct.jpeg_compress_struct, ptr %32, i32 0, i32 0
  %34 = load ptr, ptr %33, align 8, !tbaa !59
  %35 = getelementptr inbounds nuw %struct.jpeg_error_mgr, ptr %34, i32 0, i32 5
  store i32 50, ptr %35, align 8, !tbaa !60
  %36 = load i32, ptr %5, align 4, !tbaa !43
  %37 = load ptr, ptr %4, align 8, !tbaa !3
  %38 = getelementptr inbounds nuw %struct.jpeg_compress_struct, ptr %37, i32 0, i32 0
  %39 = load ptr, ptr %38, align 8, !tbaa !59
  %40 = getelementptr inbounds nuw %struct.jpeg_error_mgr, ptr %39, i32 0, i32 6
  %41 = getelementptr inbounds [8 x i32], ptr %40, i64 0, i64 0
  store i32 %36, ptr %41, align 4, !tbaa !84
  %42 = load ptr, ptr %4, align 8, !tbaa !3
  %43 = getelementptr inbounds nuw %struct.jpeg_compress_struct, ptr %42, i32 0, i32 0
  %44 = load ptr, ptr %43, align 8, !tbaa !59
  %45 = getelementptr inbounds nuw %struct.jpeg_error_mgr, ptr %44, i32 0, i32 0
  %46 = load ptr, ptr %45, align 8, !tbaa !72
  %47 = load ptr, ptr %4, align 8, !tbaa !3
  call void %46(ptr noundef %47)
  br label %48

48:                                               ; preds = %31, %28
  %49 = load ptr, ptr %7, align 8, !tbaa !29
  %50 = getelementptr inbounds nuw %struct.JHUFF_TBL, ptr %49, i32 0, i32 2
  %51 = load i32, ptr %50, align 4, !tbaa !102
  %52 = icmp ne i32 %51, 0
  br i1 %52, label %114, label %53

53:                                               ; preds = %48
  %54 = load ptr, ptr %4, align 8, !tbaa !3
  call void @emit_marker(ptr noundef %54, i32 noundef 196)
  store i32 0, ptr %8, align 4, !tbaa !43
  store i32 1, ptr %9, align 4, !tbaa !43
  br label %55

55:                                               ; preds = %68, %53
  %56 = load i32, ptr %9, align 4, !tbaa !43
  %57 = icmp sle i32 %56, 16
  br i1 %57, label %58, label %71

58:                                               ; preds = %55
  %59 = load ptr, ptr %7, align 8, !tbaa !29
  %60 = getelementptr inbounds nuw %struct.JHUFF_TBL, ptr %59, i32 0, i32 0
  %61 = load i32, ptr %9, align 4, !tbaa !43
  %62 = sext i32 %61 to i64
  %63 = getelementptr inbounds [17 x i8], ptr %60, i64 0, i64 %62
  %64 = load i8, ptr %63, align 1, !tbaa !84
  %65 = zext i8 %64 to i32
  %66 = load i32, ptr %8, align 4, !tbaa !43
  %67 = add nsw i32 %66, %65
  store i32 %67, ptr %8, align 4, !tbaa !43
  br label %68

68:                                               ; preds = %58
  %69 = load i32, ptr %9, align 4, !tbaa !43
  %70 = add nsw i32 %69, 1
  store i32 %70, ptr %9, align 4, !tbaa !43
  br label %55, !llvm.loop !104

71:                                               ; preds = %55
  %72 = load ptr, ptr %4, align 8, !tbaa !3
  %73 = load i32, ptr %8, align 4, !tbaa !43
  %74 = add nsw i32 %73, 2
  %75 = add nsw i32 %74, 1
  %76 = add nsw i32 %75, 16
  call void @emit_2bytes(ptr noundef %72, i32 noundef %76)
  %77 = load ptr, ptr %4, align 8, !tbaa !3
  %78 = load i32, ptr %5, align 4, !tbaa !43
  call void @emit_byte(ptr noundef %77, i32 noundef %78)
  store i32 1, ptr %9, align 4, !tbaa !43
  br label %79

79:                                               ; preds = %91, %71
  %80 = load i32, ptr %9, align 4, !tbaa !43
  %81 = icmp sle i32 %80, 16
  br i1 %81, label %82, label %94

82:                                               ; preds = %79
  %83 = load ptr, ptr %4, align 8, !tbaa !3
  %84 = load ptr, ptr %7, align 8, !tbaa !29
  %85 = getelementptr inbounds nuw %struct.JHUFF_TBL, ptr %84, i32 0, i32 0
  %86 = load i32, ptr %9, align 4, !tbaa !43
  %87 = sext i32 %86 to i64
  %88 = getelementptr inbounds [17 x i8], ptr %85, i64 0, i64 %87
  %89 = load i8, ptr %88, align 1, !tbaa !84
  %90 = zext i8 %89 to i32
  call void @emit_byte(ptr noundef %83, i32 noundef %90)
  br label %91

91:                                               ; preds = %82
  %92 = load i32, ptr %9, align 4, !tbaa !43
  %93 = add nsw i32 %92, 1
  store i32 %93, ptr %9, align 4, !tbaa !43
  br label %79, !llvm.loop !105

94:                                               ; preds = %79
  store i32 0, ptr %9, align 4, !tbaa !43
  br label %95

95:                                               ; preds = %108, %94
  %96 = load i32, ptr %9, align 4, !tbaa !43
  %97 = load i32, ptr %8, align 4, !tbaa !43
  %98 = icmp slt i32 %96, %97
  br i1 %98, label %99, label %111

99:                                               ; preds = %95
  %100 = load ptr, ptr %4, align 8, !tbaa !3
  %101 = load ptr, ptr %7, align 8, !tbaa !29
  %102 = getelementptr inbounds nuw %struct.JHUFF_TBL, ptr %101, i32 0, i32 1
  %103 = load i32, ptr %9, align 4, !tbaa !43
  %104 = sext i32 %103 to i64
  %105 = getelementptr inbounds [256 x i8], ptr %102, i64 0, i64 %104
  %106 = load i8, ptr %105, align 1, !tbaa !84
  %107 = zext i8 %106 to i32
  call void @emit_byte(ptr noundef %100, i32 noundef %107)
  br label %108

108:                                              ; preds = %99
  %109 = load i32, ptr %9, align 4, !tbaa !43
  %110 = add nsw i32 %109, 1
  store i32 %110, ptr %9, align 4, !tbaa !43
  br label %95, !llvm.loop !106

111:                                              ; preds = %95
  %112 = load ptr, ptr %7, align 8, !tbaa !29
  %113 = getelementptr inbounds nuw %struct.JHUFF_TBL, ptr %112, i32 0, i32 2
  store i32 1, ptr %113, align 4, !tbaa !102
  br label %114

114:                                              ; preds = %111, %48
  call void @llvm.lifetime.end.p0(i64 4, ptr %9) #2
  call void @llvm.lifetime.end.p0(i64 4, ptr %8) #2
  call void @llvm.lifetime.end.p0(i64 8, ptr %7) #2
  ret void
}