; Function Attrs: nounwind uwtable
define internal fastcc void @emit_dht(ptr noundef %0, i32 noundef %1, i32 noundef range(i32 0, 2) %2) unnamed_addr #0 {
  %.not = icmp eq i32 %2, 0
  %4 = getelementptr inbounds nuw i8, ptr %0, i64 160
  %5 = sext i32 %1 to i64
  %6 = getelementptr inbounds [4 x ptr], ptr %4, i64 0, i64 %5
  %7 = add nsw i32 %1, 16
  %8 = getelementptr inbounds nuw i8, ptr %0, i64 128
  %9 = getelementptr inbounds [4 x ptr], ptr %8, i64 0, i64 %5
  %.036 = select i1 %.not, i32 %1, i32 %7
  %.035.in = select i1 %.not, ptr %9, ptr %6
  %.035 = load ptr, ptr %.035.in, align 8, !tbaa !78
  %10 = icmp eq ptr %.035, null
  br i1 %10, label %11, label %17

11:                                               ; preds = %3
  %12 = load ptr, ptr %0, align 8, !tbaa !45
  %13 = getelementptr inbounds nuw i8, ptr %12, i64 40
  store i32 50, ptr %13, align 8, !tbaa !46
  %14 = getelementptr inbounds nuw i8, ptr %12, i64 44
  store i32 %.036, ptr %14, align 4, !tbaa !42
  %15 = load ptr, ptr %0, align 8, !tbaa !45
  %16 = load ptr, ptr %15, align 8, !tbaa !49
  tail call void %16(ptr noundef nonnull %0) #3
  br label %17

17:                                               ; preds = %11, %3
  %18 = getelementptr inbounds nuw i8, ptr %.035, i64 276
  %19 = load i32, ptr %18, align 4, !tbaa !100
  %.not37 = icmp eq i32 %19, 0
  br i1 %.not37, label %20, label %143

20:                                               ; preds = %17
  %21 = getelementptr inbounds nuw i8, ptr %0, i64 40
  %22 = load ptr, ptr %21, align 8, !tbaa !38
  %23 = load ptr, ptr %22, align 8, !tbaa !39
  %24 = getelementptr inbounds nuw i8, ptr %23, i64 1
  store ptr %24, ptr %22, align 8, !tbaa !39
  store i8 -1, ptr %23, align 1, !tbaa !42
  %25 = getelementptr inbounds nuw i8, ptr %22, i64 8
  %26 = load i64, ptr %25, align 8, !tbaa !43
  %27 = add i64 %26, -1
  store i64 %27, ptr %25, align 8, !tbaa !43
  %28 = icmp eq i64 %27, 0
  br i1 %28, label %29, label %emit_byte.exit.i

29:                                               ; preds = %20
  %30 = getelementptr inbounds nuw i8, ptr %22, i64 24
  %31 = load ptr, ptr %30, align 8, !tbaa !44
  %32 = tail call i32 %31(ptr noundef nonnull %0) #3
  %.not.i.i = icmp eq i32 %32, 0
  br i1 %.not.i.i, label %33, label %emit_byte.exit.i

33:                                               ; preds = %29
  %34 = load ptr, ptr %0, align 8, !tbaa !45
  %35 = getelementptr inbounds nuw i8, ptr %34, i64 40
  store i32 24, ptr %35, align 8, !tbaa !46
  %36 = load ptr, ptr %34, align 8, !tbaa !49
  tail call void %36(ptr noundef nonnull %0) #3
  br label %emit_byte.exit.i

emit_byte.exit.i:                                 ; preds = %33, %29, %20
  %37 = load ptr, ptr %21, align 8, !tbaa !38
  %38 = load ptr, ptr %37, align 8, !tbaa !39
  %39 = getelementptr inbounds nuw i8, ptr %38, i64 1
  store ptr %39, ptr %37, align 8, !tbaa !39
  store i8 -60, ptr %38, align 1, !tbaa !42
  %40 = getelementptr inbounds nuw i8, ptr %37, i64 8
  %41 = load i64, ptr %40, align 8, !tbaa !43
  %42 = add i64 %41, -1
  store i64 %42, ptr %40, align 8, !tbaa !43
  %43 = icmp eq i64 %42, 0
  br i1 %43, label %44, label %emit_marker.exit.preheader

44:                                               ; preds = %emit_byte.exit.i
  %45 = getelementptr inbounds nuw i8, ptr %37, i64 24
  %46 = load ptr, ptr %45, align 8, !tbaa !44
  %47 = tail call i32 %46(ptr noundef nonnull %0) #3
  %.not.i2.i = icmp eq i32 %47, 0
  br i1 %.not.i2.i, label %48, label %emit_marker.exit.preheader

48:                                               ; preds = %44
  %49 = load ptr, ptr %0, align 8, !tbaa !45
  %50 = getelementptr inbounds nuw i8, ptr %49, i64 40
  store i32 24, ptr %50, align 8, !tbaa !46
  %51 = load ptr, ptr %49, align 8, !tbaa !49
  tail call void %51(ptr noundef nonnull %0) #3
  br label %emit_marker.exit.preheader

emit_marker.exit.preheader:                       ; preds = %emit_byte.exit.i, %44, %48
  br label %emit_marker.exit

emit_marker.exit:                                 ; preds = %emit_marker.exit.preheader, %emit_marker.exit
  %indvars.iv = phi i64 [ %indvars.iv.next, %emit_marker.exit ], [ 1, %emit_marker.exit.preheader ]
  %.03444 = phi i32 [ %55, %emit_marker.exit ], [ 0, %emit_marker.exit.preheader ]
  %52 = getelementptr inbounds nuw [17 x i8], ptr %.035, i64 0, i64 %indvars.iv
  %53 = load i8, ptr %52, align 1, !tbaa !42
  %54 = zext i8 %53 to i32
  %55 = add i32 %.03444, %54
  %indvars.iv.next = add nuw nsw i64 %indvars.iv, 1
  %exitcond.not = icmp eq i64 %indvars.iv.next, 17
  br i1 %exitcond.not, label %56, label %emit_marker.exit, !llvm.loop !102

56:                                               ; preds = %emit_marker.exit
  %57 = add nuw nsw i32 %55, 19
  %58 = lshr i32 %57, 8
  %59 = load ptr, ptr %21, align 8, !tbaa !38
  %60 = trunc i32 %58 to i8
  %61 = load ptr, ptr %59, align 8, !tbaa !39
  %62 = getelementptr inbounds nuw i8, ptr %61, i64 1
  store ptr %62, ptr %59, align 8, !tbaa !39
  store i8 %60, ptr %61, align 1, !tbaa !42
  %63 = getelementptr inbounds nuw i8, ptr %59, i64 8
  %64 = load i64, ptr %63, align 8, !tbaa !43
  %65 = add i64 %64, -1
  store i64 %65, ptr %63, align 8, !tbaa !43
  %66 = icmp eq i64 %65, 0
  br i1 %66, label %67, label %emit_byte.exit.i38

67:                                               ; preds = %56
  %68 = getelementptr inbounds nuw i8, ptr %59, i64 24
  %69 = load ptr, ptr %68, align 8, !tbaa !44
  %70 = tail call i32 %69(ptr noundef nonnull %0) #3
  %.not.i.i39 = icmp eq i32 %70, 0
  br i1 %.not.i.i39, label %71, label %emit_byte.exit.i38

71:                                               ; preds = %67
  %72 = load ptr, ptr %0, align 8, !tbaa !45
  %73 = getelementptr inbounds nuw i8, ptr %72, i64 40
  store i32 24, ptr %73, align 8, !tbaa !46
  %74 = load ptr, ptr %72, align 8, !tbaa !49
  tail call void %74(ptr noundef nonnull %0) #3
  br label %emit_byte.exit.i38

emit_byte.exit.i38:                               ; preds = %71, %67, %56
  %75 = load ptr, ptr %21, align 8, !tbaa !38
  %76 = trunc i32 %57 to i8
  %77 = load ptr, ptr %75, align 8, !tbaa !39
  %78 = getelementptr inbounds nuw i8, ptr %77, i64 1
  store ptr %78, ptr %75, align 8, !tbaa !39
  store i8 %76, ptr %77, align 1, !tbaa !42
  %79 = getelementptr inbounds nuw i8, ptr %75, i64 8
  %80 = load i64, ptr %79, align 8, !tbaa !43
  %81 = add i64 %80, -1
  store i64 %81, ptr %79, align 8, !tbaa !43
  %82 = icmp eq i64 %81, 0
  br i1 %82, label %83, label %emit_2bytes.exit

83:                                               ; preds = %emit_byte.exit.i38
  %84 = getelementptr inbounds nuw i8, ptr %75, i64 24
  %85 = load ptr, ptr %84, align 8, !tbaa !44
  %86 = tail call i32 %85(ptr noundef nonnull %0) #3
  %.not.i3.i = icmp eq i32 %86, 0
  br i1 %.not.i3.i, label %87, label %emit_2bytes.exit

87:                                               ; preds = %83
  %88 = load ptr, ptr %0, align 8, !tbaa !45
  %89 = getelementptr inbounds nuw i8, ptr %88, i64 40
  store i32 24, ptr %89, align 8, !tbaa !46
  %90 = load ptr, ptr %88, align 8, !tbaa !49
  tail call void %90(ptr noundef nonnull %0) #3
  br label %emit_2bytes.exit

emit_2bytes.exit:                                 ; preds = %emit_byte.exit.i38, %83, %87
  %91 = load ptr, ptr %21, align 8, !tbaa !38
  %92 = trunc i32 %.036 to i8
  %93 = load ptr, ptr %91, align 8, !tbaa !39
  %94 = getelementptr inbounds nuw i8, ptr %93, i64 1
  store ptr %94, ptr %91, align 8, !tbaa !39
  store i8 %92, ptr %93, align 1, !tbaa !42
  %95 = getelementptr inbounds nuw i8, ptr %91, i64 8
  %96 = load i64, ptr %95, align 8, !tbaa !43
  %97 = add i64 %96, -1
  store i64 %97, ptr %95, align 8, !tbaa !43
  %98 = icmp eq i64 %97, 0
  br i1 %98, label %99, label %emit_byte.exit.preheader

99:                                               ; preds = %emit_2bytes.exit
  %100 = getelementptr inbounds nuw i8, ptr %91, i64 24
  %101 = load ptr, ptr %100, align 8, !tbaa !44
  %102 = tail call i32 %101(ptr noundef nonnull %0) #3
  %.not.i = icmp eq i32 %102, 0
  br i1 %.not.i, label %103, label %emit_byte.exit.preheader

103:                                              ; preds = %99
  %104 = load ptr, ptr %0, align 8, !tbaa !45
  %105 = getelementptr inbounds nuw i8, ptr %104, i64 40
  store i32 24, ptr %105, align 8, !tbaa !46
  %106 = load ptr, ptr %104, align 8, !tbaa !49
  tail call void %106(ptr noundef nonnull %0) #3
  br label %emit_byte.exit.preheader

emit_byte.exit.preheader:                         ; preds = %emit_2bytes.exit, %99, %103
  br label %emit_byte.exit

.preheader:                                       ; preds = %emit_byte.exit41
  %.not48 = icmp eq i32 %55, 0
  br i1 %.not48, label %._crit_edge, label %.lr.ph

.lr.ph:                                           ; preds = %.preheader
  %107 = getelementptr inbounds nuw i8, ptr %.035, i64 17
  %wide.trip.count = zext i32 %55 to i64
  br label %125

emit_byte.exit:                                   ; preds = %emit_byte.exit.preheader, %emit_byte.exit41
  %indvars.iv50 = phi i64 [ %indvars.iv.next51, %emit_byte.exit41 ], [ 1, %emit_byte.exit.preheader ]
  %108 = getelementptr inbounds nuw [17 x i8], ptr %.035, i64 0, i64 %indvars.iv50
  %109 = load i8, ptr %108, align 1, !tbaa !42
  %110 = load ptr, ptr %21, align 8, !tbaa !38
  %111 = load ptr, ptr %110, align 8, !tbaa !39
  %112 = getelementptr inbounds nuw i8, ptr %111, i64 1
  store ptr %112, ptr %110, align 8, !tbaa !39
  store i8 %109, ptr %111, align 1, !tbaa !42
  %113 = getelementptr inbounds nuw i8, ptr %110, i64 8
  %114 = load i64, ptr %113, align 8, !tbaa !43
  %115 = add i64 %114, -1
  store i64 %115, ptr %113, align 8, !tbaa !43
  %116 = icmp eq i64 %115, 0
  br i1 %116, label %117, label %emit_byte.exit41

117:                                              ; preds = %emit_byte.exit
  %118 = getelementptr inbounds nuw i8, ptr %110, i64 24
  %119 = load ptr, ptr %118, align 8, !tbaa !44
  %120 = tail call i32 %119(ptr noundef nonnull %0) #3
  %.not.i40 = icmp eq i32 %120, 0
  br i1 %.not.i40, label %121, label %emit_byte.exit41

121:                                              ; preds = %117
  %122 = load ptr, ptr %0, align 8, !tbaa !45
  %123 = getelementptr inbounds nuw i8, ptr %122, i64 40
  store i32 24, ptr %123, align 8, !tbaa !46
  %124 = load ptr, ptr %122, align 8, !tbaa !49
  tail call void %124(ptr noundef nonnull %0) #3
  br label %emit_byte.exit41

emit_byte.exit41:                                 ; preds = %emit_byte.exit, %117, %121
  %indvars.iv.next51 = add nuw nsw i64 %indvars.iv50, 1
  %exitcond53.not = icmp eq i64 %indvars.iv.next51, 17
  br i1 %exitcond53.not, label %.preheader, label %emit_byte.exit, !llvm.loop !103

125:                                              ; preds = %.lr.ph, %emit_byte.exit43
  %indvars.iv54 = phi i64 [ 0, %.lr.ph ], [ %indvars.iv.next55, %emit_byte.exit43 ]
  %126 = getelementptr inbounds nuw [256 x i8], ptr %107, i64 0, i64 %indvars.iv54
  %127 = load i8, ptr %126, align 1, !tbaa !42
  %128 = load ptr, ptr %21, align 8, !tbaa !38
  %129 = load ptr, ptr %128, align 8, !tbaa !39
  %130 = getelementptr inbounds nuw i8, ptr %129, i64 1
  store ptr %130, ptr %128, align 8, !tbaa !39
  store i8 %127, ptr %129, align 1, !tbaa !42
  %131 = getelementptr inbounds nuw i8, ptr %128, i64 8
  %132 = load i64, ptr %131, align 8, !tbaa !43
  %133 = add i64 %132, -1
  store i64 %133, ptr %131, align 8, !tbaa !43
  %134 = icmp eq i64 %133, 0
  br i1 %134, label %135, label %emit_byte.exit43

135:                                              ; preds = %125
  %136 = getelementptr inbounds nuw i8, ptr %128, i64 24
  %137 = load ptr, ptr %136, align 8, !tbaa !44
  %138 = tail call i32 %137(ptr noundef nonnull %0) #3
  %.not.i42 = icmp eq i32 %138, 0
  br i1 %.not.i42, label %139, label %emit_byte.exit43

139:                                              ; preds = %135
  %140 = load ptr, ptr %0, align 8, !tbaa !45
  %141 = getelementptr inbounds nuw i8, ptr %140, i64 40
  store i32 24, ptr %141, align 8, !tbaa !46
  %142 = load ptr, ptr %140, align 8, !tbaa !49
  tail call void %142(ptr noundef nonnull %0) #3
  br label %emit_byte.exit43

emit_byte.exit43:                                 ; preds = %125, %135, %139
  %indvars.iv.next55 = add nuw nsw i64 %indvars.iv54, 1
  %exitcond57.not = icmp eq i64 %indvars.iv.next55, %wide.trip.count
  br i1 %exitcond57.not, label %._crit_edge, label %125, !llvm.loop !104

._crit_edge:                                      ; preds = %emit_byte.exit43, %.preheader
  store i32 1, ptr %18, align 4, !tbaa !100
  br label %143

143:                                              ; preds = %._crit_edge, %17
  ret void
}